target datalayout = "e-m:e-p270:32:32-p271:32:32-p272:64:64-i64:64-i128:128-f80:128-n8:16:32:64-S128"
target triple = "x86_64-pc-linux-gnu"

%struct.KDF_PBKDF1 = type { ptr, %struct.PROV_DIGEST, ptr, i64, ptr, i64, i64 }
%struct.PROV_DIGEST = type { ptr, ptr, ptr }

@.str = private unnamed_addr constant [51 x i8] c"../openssl/providers/implementations/kdfs/pbkdf1.c\00", align 1
@__func__.kdf_pbkdf1_derive = private unnamed_addr constant [18 x i8] c"kdf_pbkdf1_derive\00", align 1
@__func__.kdf_pbkdf1_do_derive = private unnamed_addr constant [21 x i8] c"kdf_pbkdf1_do_derive\00", align 1

; Function Attrs: nounwind uwtable
define internal i32 @kdf_pbkdf1_do_derive(ptr noundef %0, i64 noundef %1, ptr noundef %2, i64 noundef %3, i64 noundef %4, ptr noundef %5, ptr noundef %6, i64 noundef %7) #0 {
  %9 = alloca ptr, align 8
  %10 = alloca i64, align 8
  %11 = alloca ptr, align 8
  %12 = alloca i64, align 8
  %13 = alloca i64, align 8
  %14 = alloca ptr, align 8
  %15 = alloca ptr, align 8
  %16 = alloca i64, align 8
  %17 = alloca i64, align 8
  %18 = alloca i32, align 4
  %19 = alloca i32, align 4
  %20 = alloca [64 x i8], align 16
  %21 = alloca ptr, align 8
  store ptr %0, ptr %9, align 8, !tbaa !19
  store i64 %1, ptr %10, align 8, !tbaa !20
  store ptr %2, ptr %11, align 8, !tbaa !19
  store i64 %3, ptr %12, align 8, !tbaa !20
  store i64 %4, ptr %13, align 8, !tbaa !20
  store ptr %5, ptr %14, align 8, !tbaa !23
  store ptr %6, ptr %15, align 8, !tbaa !19
  store i64 %7, ptr %16, align 8, !tbaa !20
  call void @llvm.lifetime.start.p0(i64 8, ptr %17) #5
  call void @llvm.lifetime.start.p0(i64 4, ptr %18) #5
  call void @llvm.lifetime.start.p0(i64 4, ptr %19) #5
  store i32 0, ptr %19, align 4, !tbaa !26
  call void @llvm.lifetime.start.p0(i64 64, ptr %20) #5
  call void @llvm.lifetime.start.p0(i64 8, ptr %21) #5
  store ptr null, ptr %21, align 8, !tbaa !28
  %22 = call ptr @EVP_MD_CTX_new()
  store ptr %22, ptr %21, align 8, !tbaa !28
  %23 = load ptr, ptr %21, align 8, !tbaa !28
  %24 = icmp eq ptr %23, null
  br i1 %24, label %25, label %26

25:                                               ; preds = %8
  call void @ERR_new()
  call void @ERR_set_debug(ptr noundef @.str, i32 noundef 63, ptr noundef @__func__.kdf_pbkdf1_do_derive)
  call void (i32, i32, ptr, ...) @ERR_set_error(i32 noundef 57, i32 noundef 524294, ptr noundef null)
  br label %94

26:                                               ; preds = %8
  %27 = load ptr, ptr %21, align 8, !tbaa !28
  %28 = load ptr, ptr %14, align 8, !tbaa !23
  %29 = call i32 @EVP_DigestInit_ex(ptr noundef %27, ptr noundef %28, ptr noundef null)
  %30 = icmp ne i32 %29, 0
  br i1 %30, label %31, label %48

31:                                               ; preds = %26
  %32 = load ptr, ptr %21, align 8, !tbaa !28
  %33 = load ptr, ptr %9, align 8, !tbaa !19
  %34 = load i64, ptr %10, align 8, !tbaa !20
  %35 = call i32 @EVP_DigestUpdate(ptr noundef %32, ptr noundef %33, i64 noundef %34)
  %36 = icmp ne i32 %35, 0
  br i1 %36, label %37, label %48

37:                                               ; preds = %31
  %38 = load ptr, ptr %21, align 8, !tbaa !28
  %39 = load ptr, ptr %11, align 8, !tbaa !19
  %40 = load i64, ptr %12, align 8, !tbaa !20
  %41 = call i32 @EVP_DigestUpdate(ptr noundef %38, ptr noundef %39, i64 noundef %40)
  %42 = icmp ne i32 %41, 0
  br i1 %42, label %43, label %48

43:                                               ; preds = %37
  %44 = load ptr, ptr %21, align 8, !tbaa !28
  %45 = getelementptr inbounds [64 x i8], ptr %20, i64 0, i64 0
  %46 = call i32 @EVP_DigestFinal_ex(ptr noundef %44, ptr noundef %45, ptr noundef null)
  %47 = icmp ne i32 %46, 0
  br i1 %47, label %49, label %48

48:                                               ; preds = %43, %37, %31, %26
  br label %94

49:                                               ; preds = %43
  %50 = load ptr, ptr %14, align 8, !tbaa !23
  %51 = call i32 @EVP_MD_get_size(ptr noundef %50)
  store i32 %51, ptr %18, align 4, !tbaa !26
  %52 = load i32, ptr %18, align 4, !tbaa !26
  %53 = icmp sle i32 %52, 0
  br i1 %53, label %54, label %55

54:                                               ; preds = %49
  br label %94

55:                                               ; preds = %49
  %56 = load i64, ptr %16, align 8, !tbaa !20
  %57 = load i32, ptr %18, align 4, !tbaa !26
  %58 = sext i32 %57 to i64
  %59 = icmp ugt i64 %56, %58
  br i1 %59, label %60, label %61

60:                                               ; preds = %55
  call void @ERR_new()
  call void @ERR_set_debug(ptr noundef @.str, i32 noundef 76, ptr noundef @__func__.kdf_pbkdf1_do_derive)
  call void (i32, i32, ptr, ...) @ERR_set_error(i32 noundef 57, i32 noundef 202, ptr noundef null)
  br label %94

61:                                               ; preds = %55
  store i64 1, ptr %17, align 8, !tbaa !20
  br label %62

62:                                               ; preds = %87, %61
  %63 = load i64, ptr %17, align 8, !tbaa !20
  %64 = load i64, ptr %13, align 8, !tbaa !20
  %65 = icmp ult i64 %63, %64
  br i1 %65, label %66, label %90

66:                                               ; preds = %62
  %67 = load ptr, ptr %21, align 8, !tbaa !28
  %68 = load ptr, ptr %14, align 8, !tbaa !23
  %69 = call i32 @EVP_DigestInit_ex(ptr noundef %67, ptr noundef %68, ptr noundef null)
  %70 = icmp ne i32 %69, 0
  br i1 %70, label %72, label %71

71:                                               ; preds = %66
  br label %94

72:                                               ; preds = %66
  %73 = load ptr, ptr %21, align 8, !tbaa !28
  %74 = getelementptr inbounds [64 x i8], ptr %20, i64 0, i64 0
  %75 = load i32, ptr %18, align 4, !tbaa !26
  %76 = sext i32 %75 to i64
  %77 = call i32 @EVP_DigestUpdate(ptr noundef %73, ptr noundef %74, i64 noundef %76)
  %78 = icmp ne i32 %77, 0
  br i1 %78, label %80, label %79

79:                                               ; preds = %72
  br label %94

80:                                               ; preds = %72
  %81 = load ptr, ptr %21, align 8, !tbaa !28
  %82 = getelementptr inbounds [64 x i8], ptr %20, i64 0, i64 0
  %83 = call i32 @EVP_DigestFinal_ex(ptr noundef %81, ptr noundef %82, ptr noundef null)
  %84 = icmp ne i32 %83, 0
  br i1 %84, label %86, label %85

85:                                               ; preds = %80
  br label %94

86:                                               ; preds = %80
  br label %87

87:                                               ; preds = %86
  %88 = load i64, ptr %17, align 8, !tbaa !20
  %89 = add i64 %88, 1
  store i64 %89, ptr %17, align 8, !tbaa !20
  br label %62, !llvm.loop !30

90:                                               ; preds = %62
  %91 = load ptr, ptr %15, align 8, !tbaa !19
  %92 = getelementptr inbounds [64 x i8], ptr %20, i64 0, i64 0
  %93 = load i64, ptr %16, align 8, !tbaa !20
  call void @llvm.memcpy.p0.p0.i64(ptr align 1 %91, ptr align 16 %92, i64 %93, i1 false)
  store i32 1, ptr %19, align 4, !tbaa !26
  br label %94

94:                                               ; preds = %90, %85, %79, %71, %60, %54, %48, %25
  %95 = getelementptr inbounds [64 x i8], ptr %20, i64 0, i64 0
  call void @OPENSSL_cleanse(ptr noundef %95, i64 noundef 64)
  %96 = load ptr, ptr %21, align 8, !tbaa !28
  call void @EVP_MD_CTX_free(ptr noundef %96)
  %97 = load i32, ptr %19, align 4, !tbaa !26
  call void @llvm.lifetime.end.p0(i64 8, ptr %21) #5
  call void @llvm.lifetime.end.p0(i64 64, ptr %20) #5
  call void @llvm.lifetime.end.p0(i64 4, ptr %19) #5
  call void @llvm.lifetime.end.p0(i64 4, ptr %18) #5
  call void @llvm.lifetime.end.p0(i64 8, ptr %17) #5
  ret i32 %97
}

; Function Attrs: nounwind uwtable
define internal i32 @kdf_pbkdf1_derive(ptr noundef %0, ptr noundef %1, i64 noundef %2, ptr noundef %3) #0 {
  %5 = alloca i32, align 4
  %6 = alloca ptr, align 8
  %7 = alloca ptr, align 8
  %8 = alloca i64, align 8
  %9 = alloca ptr, align 8
  %10 = alloca ptr, align 8
  %11 = alloca ptr, align 8
  %12 = alloca i32, align 4
  store ptr %0, ptr %6, align 8, !tbaa !3
  store ptr %1, ptr %7, align 8, !tbaa !19
  store i64 %2, ptr %8, align 8, !tbaa !20
  store ptr %3, ptr %9, align 8, !tbaa !21
  call void @llvm.lifetime.start.p0(i64 8, ptr %10) #5
  %13 = load ptr, ptr %6, align 8, !tbaa !3
  store ptr %13, ptr %10, align 8, !tbaa !3
  call void @llvm.lifetime.start.p0(i64 8, ptr %11) #5
  %14 = call i32 @ossl_prov_is_running()
  %15 = icmp ne i32 %14, 0
  br i1 %15, label %16, label %21

16:                                               ; preds = %4
  %17 = load ptr, ptr %10, align 8, !tbaa !3
  %18 = load ptr, ptr %9, align 8, !tbaa !21
  %19 = call i32 @kdf_pbkdf1_set_ctx_params(ptr noundef %17, ptr noundef %18)
  %20 = icmp ne i32 %19, 0
  br i1 %20, label %22, label %21

21:                                               ; preds = %16, %4
  store i32 0, ptr %5, align 4
  store i32 1, ptr %12, align 4
  br label %57

22:                                               ; preds = %16
  %23 = load ptr, ptr %10, align 8, !tbaa !3
  %24 = getelementptr inbounds nuw %struct.KDF_PBKDF1, ptr %23, i32 0, i32 2
  %25 = load ptr, ptr %24, align 8, !tbaa !16
  %26 = icmp eq ptr %25, null
  br i1 %26, label %27, label %28

27:                                               ; preds = %22
  call void @ERR_new()
  call void @ERR_set_debug(ptr noundef @.str, i32 noundef 187, ptr noundef @__func__.kdf_pbkdf1_derive)
  call void (i32, i32, ptr, ...) @ERR_set_error(i32 noundef 57, i32 noundef 130, ptr noundef null)
  store i32 0, ptr %5, align 4
  store i32 1, ptr %12, align 4
  br label %57

28:                                               ; preds = %22
  %29 = load ptr, ptr %10, align 8, !tbaa !3
  %30 = getelementptr inbounds nuw %struct.KDF_PBKDF1, ptr %29, i32 0, i32 4
  %31 = load ptr, ptr %30, align 8, !tbaa !14
  %32 = icmp eq ptr %31, null
  br i1 %32, label %33, label %34

33:                                               ; preds = %28
  call void @ERR_new()
  call void @ERR_set_debug(ptr noundef @.str, i32 noundef 192, ptr noundef @__func__.kdf_pbkdf1_derive)
  call void (i32, i32, ptr, ...) @ERR_set_error(i32 noundef 57, i32 noundef 131, ptr noundef null)
  store i32 0, ptr %5, align 4
  store i32 1, ptr %12, align 4
  br label %57

34:                                               ; preds = %28
  %35 = load ptr, ptr %10, align 8, !tbaa !3
  %36 = getelementptr inbounds nuw %struct.KDF_PBKDF1, ptr %35, i32 0, i32 1
  %37 = call ptr @ossl_prov_digest_md(ptr noundef %36)
  store ptr %37, ptr %11, align 8, !tbaa !23
  %38 = load ptr, ptr %10, align 8, !tbaa !3
  %39 = getelementptr inbounds nuw %struct.KDF_PBKDF1, ptr %38, i32 0, i32 2
  %40 = load ptr, ptr %39, align 8, !tbaa !16
  %41 = load ptr, ptr %10, align 8, !tbaa !3
  %42 = getelementptr inbounds nuw %struct.KDF_PBKDF1, ptr %41, i32 0, i32 3
  %43 = load i64, ptr %42, align 8, !tbaa !17
  %44 = load ptr, ptr %10, align 8, !tbaa !3
  %45 = getelementptr inbounds nuw %struct.KDF_PBKDF1, ptr %44, i32 0, i32 4
  %46 = load ptr, ptr %45, align 8, !tbaa !14
  %47 = load ptr, ptr %10, align 8, !tbaa !3
  %48 = getelementptr inbounds nuw %struct.KDF_PBKDF1, ptr %47, i32 0, i32 5
  %49 = load i64, ptr %48, align 8, !tbaa !15
  %50 = load ptr, ptr %10, align 8, !tbaa !3
  %51 = getelementptr inbounds nuw %struct.KDF_PBKDF1, ptr %50, i32 0, i32 6
  %52 = load i64, ptr %51, align 8, !tbaa !18
  %53 = load ptr, ptr %11, align 8, !tbaa !23
  %54 = load ptr, ptr %7, align 8, !tbaa !19
  %55 = load i64, ptr %8, align 8, !tbaa !20
  %56 = call i32 @kdf_pbkdf1_do_derive(ptr noundef %40, i64 noundef %43, ptr noundef %46, i64 noundef %49, i64 noundef %52, ptr noundef %53, ptr noundef %54, i64 noundef %55)
  store i32 %56, ptr %5, align 4
  store i32 1, ptr %12, align 4
  br label %57

57:                                               ; preds = %34, %33, %27, %21
  call void @llvm.lifetime.end.p0(i64 8, ptr %11) #5
  call void @llvm.lifetime.end.p0(i64 8, ptr %10) #5
  %58 = load i32, ptr %5, align 4
  ret i32 %58
}