; Function Attrs: nounwind uwtable
define internal range(i32 0, 2) i32 @kdf_pbkdf1_derive(ptr noundef %0, ptr noundef writeonly captures(none) %1, i64 noundef %2, ptr noundef %3) #0 {
  %5 = alloca [64 x i8], align 16
  %6 = tail call i32 @ossl_prov_is_running() #6
  %.not = icmp eq i32 %6, 0
  br i1 %.not, label %56, label %7

7:                                                ; preds = %4
  %8 = tail call i32 @kdf_pbkdf1_set_ctx_params(ptr noundef %0, ptr noundef %3)
  %.not14 = icmp eq i32 %8, 0
  br i1 %.not14, label %56, label %9

9:                                                ; preds = %7
  %10 = getelementptr inbounds nuw i8, ptr %0, i64 32
  %11 = load ptr, ptr %10, align 8, !tbaa !15
  %12 = icmp eq ptr %11, null
  br i1 %12, label %13, label %14

13:                                               ; preds = %9
  tail call void @ERR_new() #6
  tail call void @ERR_set_debug(ptr noundef nonnull @.str, i32 noundef 187, ptr noundef nonnull @__func__.kdf_pbkdf1_derive) #6
  tail call void (i32, i32, ptr, ...) @ERR_set_error(i32 noundef 57, i32 noundef 130, ptr noundef null) #6
  br label %56

14:                                               ; preds = %9
  %15 = getelementptr inbounds nuw i8, ptr %0, i64 48
  %16 = load ptr, ptr %15, align 8, !tbaa !13
  %17 = icmp eq ptr %16, null
  br i1 %17, label %18, label %19

18:                                               ; preds = %14
  tail call void @ERR_new() #6
  tail call void @ERR_set_debug(ptr noundef nonnull @.str, i32 noundef 192, ptr noundef nonnull @__func__.kdf_pbkdf1_derive) #6
  tail call void (i32, i32, ptr, ...) @ERR_set_error(i32 noundef 57, i32 noundef 131, ptr noundef null) #6
  br label %56

19:                                               ; preds = %14
  %20 = getelementptr inbounds nuw i8, ptr %0, i64 8
  %21 = tail call ptr @ossl_prov_digest_md(ptr noundef nonnull %20) #6
  %22 = load ptr, ptr %10, align 8, !tbaa !15
  %23 = getelementptr inbounds nuw i8, ptr %0, i64 40
  %24 = load i64, ptr %23, align 8, !tbaa !16
  %25 = load ptr, ptr %15, align 8, !tbaa !13
  %26 = getelementptr inbounds nuw i8, ptr %0, i64 56
  %27 = load i64, ptr %26, align 8, !tbaa !14
  %28 = getelementptr inbounds nuw i8, ptr %0, i64 64
  %29 = load i64, ptr %28, align 8, !tbaa !17
  call void @llvm.lifetime.start.p0(i64 64, ptr nonnull %5) #6
  %30 = tail call ptr @EVP_MD_CTX_new() #6
  %31 = icmp eq ptr %30, null
  br i1 %31, label %32, label %33

32:                                               ; preds = %19
  tail call void @ERR_new() #6
  tail call void @ERR_set_debug(ptr noundef nonnull @.str, i32 noundef 63, ptr noundef nonnull @__func__.kdf_pbkdf1_do_derive) #6
  tail call void (i32, i32, ptr, ...) @ERR_set_error(i32 noundef 57, i32 noundef 524294, ptr noundef null) #6
  br label %kdf_pbkdf1_do_derive.exit

33:                                               ; preds = %19
  %34 = tail call i32 @EVP_DigestInit_ex(ptr noundef nonnull %30, ptr noundef %21, ptr noundef null) #6
  %.not.i = icmp eq i32 %34, 0
  br i1 %.not.i, label %kdf_pbkdf1_do_derive.exit, label %35

35:                                               ; preds = %33
  %36 = tail call i32 @EVP_DigestUpdate(ptr noundef nonnull %30, ptr noundef %22, i64 noundef %24) #6
  %.not30.i = icmp eq i32 %36, 0
  br i1 %.not30.i, label %kdf_pbkdf1_do_derive.exit, label %37

37:                                               ; preds = %35
  %38 = tail call i32 @EVP_DigestUpdate(ptr noundef nonnull %30, ptr noundef %25, i64 noundef %27) #6
  %.not31.i = icmp eq i32 %38, 0
  br i1 %.not31.i, label %kdf_pbkdf1_do_derive.exit, label %39

39:                                               ; preds = %37
  %40 = call i32 @EVP_DigestFinal_ex(ptr noundef nonnull %30, ptr noundef nonnull %5, ptr noundef null) #6
  %.not32.i = icmp eq i32 %40, 0
  br i1 %.not32.i, label %kdf_pbkdf1_do_derive.exit, label %41

41:                                               ; preds = %39
  %42 = call i32 @EVP_MD_get_size(ptr noundef %21) #6
  %43 = icmp slt i32 %42, 1
  br i1 %43, label %kdf_pbkdf1_do_derive.exit, label %44

44:                                               ; preds = %41
  %45 = zext nneg i32 %42 to i64
  %46 = icmp ugt i64 %2, %45
  br i1 %46, label %48, label %.preheader.i

.preheader.i:                                     ; preds = %44
  %47 = icmp ugt i64 %29, 1
  br i1 %47, label %.lr.ph.i, label %._crit_edge.i

48:                                               ; preds = %44
  call void @ERR_new() #6
  call void @ERR_set_debug(ptr noundef nonnull @.str, i32 noundef 76, ptr noundef nonnull @__func__.kdf_pbkdf1_do_derive) #6
  call void (i32, i32, ptr, ...) @ERR_set_error(i32 noundef 57, i32 noundef 202, ptr noundef null) #6
  br label %kdf_pbkdf1_do_derive.exit

49:                                               ; preds = %54
  %50 = add nuw i64 %.02536.i, 1
  %exitcond.not.i = icmp eq i64 %50, %29
  br i1 %exitcond.not.i, label %._crit_edge.i, label %.lr.ph.i, !llvm.loop !18

.lr.ph.i:                                         ; preds = %.preheader.i, %49
  %.02536.i = phi i64 [ %50, %49 ], [ 1, %.preheader.i ]
  %51 = call i32 @EVP_DigestInit_ex(ptr noundef nonnull %30, ptr noundef %21, ptr noundef null) #6
  %.not33.i = icmp eq i32 %51, 0
  br i1 %.not33.i, label %kdf_pbkdf1_do_derive.exit, label %52

52:                                               ; preds = %.lr.ph.i
  %53 = call i32 @EVP_DigestUpdate(ptr noundef nonnull %30, ptr noundef nonnull %5, i64 noundef %45) #6
  %.not34.i = icmp eq i32 %53, 0
  br i1 %.not34.i, label %kdf_pbkdf1_do_derive.exit, label %54

54:                                               ; preds = %52
  %55 = call i32 @EVP_DigestFinal_ex(ptr noundef nonnull %30, ptr noundef nonnull %5, ptr noundef null) #6
  %.not35.i = icmp eq i32 %55, 0
  br i1 %.not35.i, label %kdf_pbkdf1_do_derive.exit, label %49

._crit_edge.i:                                    ; preds = %49, %.preheader.i
  call void @llvm.memcpy.p0.p0.i64(ptr align 1 %1, ptr nonnull align 16 %5, i64 %2, i1 false)
  br label %kdf_pbkdf1_do_derive.exit

kdf_pbkdf1_do_derive.exit:                        ; preds = %.lr.ph.i, %52, %54, %32, %33, %35, %37, %39, %41, %48, %._crit_edge.i
  %.0.i = phi i32 [ 0, %32 ], [ 0, %41 ], [ 0, %48 ], [ 1, %._crit_edge.i ], [ 0, %39 ], [ 0, %37 ], [ 0, %35 ], [ 0, %33 ], [ 0, %54 ], [ 0, %52 ], [ 0, %.lr.ph.i ]
  call void @OPENSSL_cleanse(ptr noundef nonnull %5, i64 noundef 64) #6
  call void @EVP_MD_CTX_free(ptr noundef %30) #6
  call void @llvm.lifetime.end.p0(i64 64, ptr nonnull %5) #6
  br label %56

56:                                               ; preds = %4, %7, %kdf_pbkdf1_do_derive.exit, %18, %13
  %.0 = phi i32 [ 0, %13 ], [ 0, %18 ], [ %.0.i, %kdf_pbkdf1_do_derive.exit ], [ 0, %7 ], [ 0, %4 ]
  ret i32 %.0
}